Certificate:
    Data:
        Version: 3 (0x2)
        Serial Number: 6 (0x6)
    Signature Algorithm: sha256WithRSAEncryption
        Issuer: C=BR, ST=SaoPaulo, L=Americana, O=Intelimax, OU=HQ, CN=DataServer/name=BrunoB/emailAddress=contato@intelimax.com.br
        Validity
            Not Before: Mar  6 04:37:08 2020 GMT
            Not After : Mar  4 04:37:08 2030 GMT
        Subject: C=BR, ST=SaoPaulo, L=Americana, O=Intelimax, OU=HQ, CN=Client3/name=BrunoB/emailAddress=contato@intelimax.com.br
        Subject Public Key Info:
            Public Key Algorithm: rsaEncryption
                Public-Key: (4096 bit)
                Modulus:
                    00:a4:1c:1b:63:29:c7:6a:ae:0c:57:c9:88:d7:2d:
                    cb:e8:4f:8e:a0:d3:af:33:4d:66:c6:c3:5b:7c:ad:
                    4f:51:8a:d9:15:4d:16:c6:3b:49:1f:54:55:15:51:
                    6c:75:48:65:85:c4:06:c1:5a:62:16:0f:a2:82:d7:
                    c6:9b:1f:94:0e:0d:db:60:85:b4:88:e2:bd:a3:fa:
                    ae:1d:1d:f5:0b:bd:bb:65:fb:2c:af:5d:0e:b6:09:
                    cc:2a:67:a7:e1:bd:53:92:9b:0c:46:4d:94:4f:be:
                    0d:bc:c0:ca:b2:62:c9:69:10:89:c7:6e:10:cc:c7:
                    17:12:52:73:2f:a7:1f:e0:d4:2c:aa:9c:18:1c:97:
                    21:58:78:af:90:45:db:b0:2a:d8:11:aa:51:2c:33:
                    25:f8:64:fb:91:50:21:b2:35:2c:cb:d8:ec:8c:e2:
                    74:5a:79:32:97:f4:3c:b0:c1:eb:ef:60:0f:da:08:
                    b4:21:fc:21:49:11:33:3f:ee:20:46:9d:62:5c:7e:
                    6b:b6:cf:d1:2f:1b:96:51:aa:59:7b:74:84:4d:58:
                    da:14:ce:20:33:05:88:cf:58:73:31:07:c3:7f:83:
                    4c:70:e9:29:90:3f:b2:d6:f6:42:db:c2:23:c5:51:
                    8b:39:11:e3:96:55:29:d3:4d:89:42:52:8d:54:4a:
                    d2:b3:db:d8:ea:0b:3f:f5:bd:23:b7:39:8f:c6:96:
                    f4:5e:26:5f:89:b2:62:7a:fb:e4:fd:c3:0e:59:99:
                    43:0e:7e:78:f9:4a:eb:5e:ae:02:34:77:40:cd:9d:
                    06:f4:f4:42:f3:c2:29:44:08:2a:db:1c:ad:48:57:
                    c7:c1:64:7d:31:ee:7a:5f:59:cf:ef:48:45:46:01:
                    3e:c6:2f:7f:ad:90:f5:5e:ae:ec:ed:b1:28:13:9a:
                    67:c3:01:0e:3e:21:5f:da:69:07:9c:75:4a:a6:b0:
                    f2:4d:6f:16:04:b2:e4:cb:2e:0c:b0:59:2a:17:b3:
                    04:8b:8b:36:96:ef:2e:d2:d2:1a:9f:8e:c1:1e:82:
                    9b:a3:c6:d4:a2:2c:78:59:be:a0:f0:76:cf:87:cc:
                    4f:cb:b2:a1:f6:d1:fe:a0:9c:0a:33:65:6a:6a:f2:
                    cc:4d:d9:a1:48:2b:86:45:23:6d:cf:8e:17:2a:57:
                    d3:2e:40:08:a9:b7:37:68:5c:85:da:b7:e0:22:22:
                    ec:2f:02:f1:13:9b:c3:ab:2f:e3:3e:aa:a7:6e:3d:
                    c5:73:50:8f:5b:67:79:e4:2c:38:3c:ac:2b:be:1d:
                    2d:f5:72:75:7a:12:cc:97:36:41:f1:7b:b0:07:a5:
                    9a:44:d5:0f:d9:6f:02:b1:92:1f:e5:bc:31:0f:83:
                    ce:7b:77
                Exponent: 65537 (0x10001)
        X509v3 extensions:
            X509v3 Basic Constraints: 
                CA:FALSE
            Netscape Comment: 
                Easy-RSA Generated Certificate
            X509v3 Subject Key Identifier: 
                73:0C:5D:CB:D9:A8:A0:AB:C4:BF:84:FA:53:E0:50:54:95:E4:AD:89
            X509v3 Authority Key Identifier: 
                keyid:C8:DF:AE:EA:3E:7B:52:30:D1:AE:1F:CC:F7:5C:12:18:D0:B1:24:67
                DirName:/C=BR/ST=SaoPaulo/L=Americana/O=Intelimax/OU=HQ/CN=DataServer/name=BrunoB/emailAddress=contato@intelimax.com.br
                serial:A3:5B:9D:4C:F0:EE:8C:8C

            X509v3 Extended Key Usage: 
                TLS Web Client Authentication
            X509v3 Key Usage: 
                Digital Signature
    Signature Algorithm: sha256WithRSAEncryption
         75:e5:38:37:85:fe:1a:e5:f9:92:6b:a6:00:f3:c8:0f:7c:07:
         45:50:e0:53:85:0f:9d:bd:2e:29:33:72:76:a4:d2:99:84:ea:
         4b:12:f7:0a:a1:7a:d1:14:73:2b:98:a9:72:38:81:be:bf:3a:
         aa:23:11:4b:07:a2:a4:a5:98:71:d1:df:1e:d4:3c:c4:67:c4:
         f0:c4:93:7f:10:8d:55:60:4c:55:b1:3c:ed:3f:11:71:e2:96:
         8c:3b:9b:5a:17:ec:32:db:01:a4:73:46:f9:33:6a:7c:91:05:
         20:54:73:d8:f3:5a:fe:f7:f8:c5:34:67:f6:c6:ba:25:3b:22:
         75:79:c1:0e:3e:87:d1:22:9f:78:21:fc:02:49:6f:44:9d:bd:
         d4:35:e7:96:c3:31:54:26:9b:ba:4f:ed:78:dc:09:d9:2d:ff:
         04:ef:1c:b1:e3:3f:68:b1:9f:8c:32:0d:8a:38:fd:dc:b3:94:
         1d:1b:ea:32:4a:de:83:65:9d:1a:c7:30:4c:c6:9f:3b:a8:65:
         52:02:73:58:53:39:c4:fe:12:9f:aa:5b:ee:2a:97:78:af:8f:
         90:09:05:1c:43:30:da:e2:af:35:82:32:9a:62:10:eb:b9:4e:
         f1:61:a1:c7:bc:d6:fc:d2:18:ba:6c:88:e9:34:d7:03:ae:4d:
         99:a0:b9:5f:c7:02:dc:ad:e1:df:40:77:b5:35:a8:91:26:71:
         af:26:00:2a:94:63:39:32:94:5e:81:08:90:1c:46:fa:ab:40:
         14:4d:7c:10:38:3e:a5:b2:91:5e:70:26:7e:ab:93:fd:e7:84:
         53:67:f3:53:86:e9:89:f5:23:18:87:2b:72:3c:06:9f:d8:f1:
         c1:29:b0:5e:a1:82:e0:c5:51:09:4b:fb:48:54:2c:2b:60:17:
         28:f3:91:69:ca:d0:92:57:a1:01:94:eb:db:9a:fb:49:36:dc:
         ab:90:16:45:aa:cb:30:97:19:1a:65:52:1e:8b:ff:f8:2b:c2:
         ab:d9:b3:72:4a:09:6f:aa:17:ba:28:08:00:b0:3d:96:8c:1a:
         57:ea:c9:55:a5:7b:52:78:2d:c6:d1:24:7a:93:f4:d3:d0:c7:
         0c:d9:07:8e:0a:b6:77:ea:63:b6:37:38:a8:bd:63:05:ea:13:
         70:57:73:25:d7:e7:e4:8c:22:f5:57:3f:3b:f1:bb:24:71:b9:
         d6:e2:56:92:26:3d:48:89:11:47:89:15:a2:45:95:e7:68:fd:
         a3:fb:d6:c8:97:06:d1:33:43:b0:94:2b:b9:20:64:0d:14:1c:
         ef:9e:e4:ba:81:61:da:36:9c:a4:8f:69:ee:35:eb:9c:a0:27:
         58:06:e5:49:4b:eb:0c:71
-----BEGIN CERTIFICATE-----
MIIHHzCCBQegAwIBAgIBBjANBgkqhkiG9w0BAQsFADCBpDELMAkGA1UEBhMCQlIx
ETAPBgNVBAgTCFNhb1BhdWxvMRIwEAYDVQQHEwlBbWVyaWNhbmExEjAQBgNVBAoT
CUludGVsaW1heDELMAkGA1UECxMCSFExEzARBgNVBAMTCkRhdGFTZXJ2ZXIxDzAN
BgNVBCkTBkJydW5vQjEnMCUGCSqGSIb3DQEJARYYY29udGF0b0BpbnRlbGltYXgu
Y29tLmJyMB4XDTIwMDMwNjA0MzcwOFoXDTMwMDMwNDA0MzcwOFowgaExCzAJBgNV
BAYTAkJSMREwDwYDVQQIEwhTYW9QYXVsbzESMBAGA1UEBxMJQW1lcmljYW5hMRIw
EAYDVQQKEwlJbnRlbGltYXgxCzAJBgNVBAsTAkhRMRAwDgYDVQQDEwdDbGllbnQz
MQ8wDQYDVQQpEwZCcnVub0IxJzAlBgkqhkiG9w0BCQEWGGNvbnRhdG9AaW50ZWxp
bWF4LmNvbS5icjCCAiIwDQYJKoZIhvcNAQEBBQADggIPADCCAgoCggIBAKQcG2Mp
x2quDFfJiNcty+hPjqDTrzNNZsbDW3ytT1GK2RVNFsY7SR9UVRVRbHVIZYXEBsFa
YhYPooLXxpsflA4N22CFtIjivaP6rh0d9Qu9u2X7LK9dDrYJzCpnp+G9U5KbDEZN
lE++DbzAyrJiyWkQicduEMzHFxJScy+nH+DULKqcGByXIVh4r5BF27Aq2BGqUSwz
Jfhk+5FQIbI1LMvY7IzidFp5Mpf0PLDB6+9gD9oItCH8IUkRMz/uIEadYlx+a7bP
0S8bllGqWXt0hE1Y2hTOIDMFiM9YczEHw3+DTHDpKZA/stb2QtvCI8VRizkR45ZV
KdNNiUJSjVRK0rPb2OoLP/W9I7c5j8aW9F4mX4myYnr75P3DDlmZQw5+ePlK616u
AjR3QM2dBvT0QvPCKUQIKtscrUhXx8FkfTHuel9Zz+9IRUYBPsYvf62Q9V6u7O2x
KBOaZ8MBDj4hX9ppB5x1Sqaw8k1vFgSy5MsuDLBZKhezBIuLNpbvLtLSGp+OwR6C
m6PG1KIseFm+oPB2z4fMT8uyofbR/qCcCjNlamryzE3ZoUgrhkUjbc+OFypX0y5A
CKm3N2hchdq34CIi7C8C8RObw6sv4z6qp249xXNQj1tneeQsODysK74dLfVydXoS
zJc2QfF7sAelmkTVD9lvArGSH+W8MQ+Dznt3AgMBAAGjggFbMIIBVzAJBgNVHRME
AjAAMC0GCWCGSAGG+EIBDQQgFh5FYXN5LVJTQSBHZW5lcmF0ZWQgQ2VydGlmaWNh
dGUwHQYDVR0OBBYEFHMMXcvZqKCrxL+E+lPgUFSV5K2JMIHZBgNVHSMEgdEwgc6A
FMjfruo+e1Iw0a4fzPdcEhjQsSRnoYGqpIGnMIGkMQswCQYDVQQGEwJCUjERMA8G
A1UECBMIU2FvUGF1bG8xEjAQBgNVBAcTCUFtZXJpY2FuYTESMBAGA1UEChMJSW50
ZWxpbWF4MQswCQYDVQQLEwJIUTETMBEGA1UEAxMKRGF0YVNlcnZlcjEPMA0GA1UE
KRMGQnJ1bm9CMScwJQYJKoZIhvcNAQkBFhhjb250YXRvQGludGVsaW1heC5jb20u
YnKCCQCjW51M8O6MjDATBgNVHSUEDDAKBggrBgEFBQcDAjALBgNVHQ8EBAMCB4Aw
DQYJKoZIhvcNAQELBQADggIBAHXlODeF/hrl+ZJrpgDzyA98B0VQ4FOFD529Likz
cnak0pmE6ksS9wqhetEUcyuYqXI4gb6/OqojEUsHoqSlmHHR3x7UPMRnxPDEk38Q
jVVgTFWxPO0/EXHilow7m1oX7DLbAaRzRvkzanyRBSBUc9jzWv73+MU0Z/bGuiU7
InV5wQ4+h9Ein3gh/AJJb0SdvdQ155bDMVQmm7pP7XjcCdkt/wTvHLHjP2ixn4wy
DYo4/dyzlB0b6jJK3oNlnRrHMEzGnzuoZVICc1hTOcT+Ep+qW+4ql3ivj5AJBRxD
MNrirzWCMppiEOu5TvFhoce81vzSGLpsiOk01wOuTZmguV/HAtyt4d9Ad7U1qJEm
ca8mACqUYzkylF6BCJAcRvqrQBRNfBA4PqWykV5wJn6rk/3nhFNn81OG6Yn1IxiH
K3I8Bp/Y8cEpsF6hguDFUQlL+0hULCtgFyjzkWnK0JJXoQGU69ua+0k23KuQFkWq
yzCXGRplUh6L//grwqvZs3JKCW+qF7ooCACwPZaMGlfqyVWle1J4LcbRJHqT9NPQ
xwzZB44KtnfqY7Y3OKi9YwXqE3BXcyXX5+SMIvVXPzvxuyRxudbiVpImPUiJEUeJ
FaJFledo/aP71siXBtEzQ7CUK7kgZA0UHO+e5LqBYdo2nKSPae4165ygJ1gG5UlL
6wxx
-----END CERTIFICATE-----
